; Function Attrs: mustprogress nofree nosync nounwind willreturn memory(write, argmem: readwrite, inaccessiblemem: none) uwtable
define i32 @hwloc_cpukinds_get_nr(ptr noundef readonly captures(none) %0, i64 noundef %1) local_unnamed_addr #15 {
  %.not = icmp eq i64 %1, 0
  br i1 %.not, label %5, label %3

3:                                                ; preds = %2
  %4 = tail call ptr @__errno_location() #27
  store i32 22, ptr %4, align 4, !tbaa !74
  br label %8

5:                                                ; preds = %2
  %6 = getelementptr inbounds nuw i8, ptr %0, i64 760
  %7 = load i32, ptr %6, align 8, !tbaa !3
  br label %8

8:                                                ; preds = %5, %3
  %.0 = phi i32 [ -1, %3 ], [ %7, %5 ]
  ret i32 %.0
}